target datalayout = "e-m:e-p270:32:32-p271:32:32-p272:64:64-i64:64-i128:128-f80:128-n8:16:32:64-S128"
target triple = "x86_64-pc-linux-gnu"

%"class.std::shared_ptr" = type { %"class.std::__shared_ptr" }
%"class.std::__shared_ptr" = type { ptr, %"class.std::__shared_count" }
%"class.std::__shared_count" = type { ptr }
%"class.pxrInternal_v0_24__pxrReserved__::HdDataSourceMaterialNetworkInterface" = type { %"class.pxrInternal_v0_24__pxrReserved__::HdMaterialNetworkInterface", %"class.pxrInternal_v0_24__pxrReserved__::SdfPath", %"class.pxrInternal_v0_24__pxrReserved__::HdMaterialNetworkSchema", %"class.pxrInternal_v0_24__pxrReserved__::HdContainerDataSourceEditor", %"class.std::shared_ptr", %"class.std::unordered_map", %"class.std::unordered_set", %"class.std::unordered_set", i8, %"class.pxrInternal_v0_24__pxrReserved__::HdSchemaBasedContainerSchema", %"class.pxrInternal_v0_24__pxrReserved__::TfToken", %"class.pxrInternal_v0_24__pxrReserved__::HdMaterialNodeSchema", %"class.pxrInternal_v0_24__pxrReserved__::HdSchemaBasedContainerSchema.25", %"class.pxrInternal_v0_24__pxrReserved__::HdSchemaBasedContainerSchema.26" }
%"class.pxrInternal_v0_24__pxrReserved__::HdMaterialNetworkInterface" = type { ptr }
%"class.pxrInternal_v0_24__pxrReserved__::SdfPath" = type { %"struct.pxrInternal_v0_24__pxrReserved__::Sdf_PathNodeHandleImpl", %"struct.pxrInternal_v0_24__pxrReserved__::Sdf_PathNodeHandleImpl.0" }
%"struct.pxrInternal_v0_24__pxrReserved__::Sdf_PathNodeHandleImpl" = type { %"struct.pxrInternal_v0_24__pxrReserved__::Sdf_Pool<pxrInternal_v0_24__pxrReserved__::Sdf_PathPrimTag, 24, 8>::Handle" }
%"struct.pxrInternal_v0_24__pxrReserved__::Sdf_Pool<pxrInternal_v0_24__pxrReserved__::Sdf_PathPrimTag, 24, 8>::Handle" = type { i32 }
%"struct.pxrInternal_v0_24__pxrReserved__::Sdf_PathNodeHandleImpl.0" = type { %"struct.pxrInternal_v0_24__pxrReserved__::Sdf_Pool<pxrInternal_v0_24__pxrReserved__::Sdf_PathPropTag, 24, 8>::Handle" }
%"struct.pxrInternal_v0_24__pxrReserved__::Sdf_Pool<pxrInternal_v0_24__pxrReserved__::Sdf_PathPropTag, 24, 8>::Handle" = type { i32 }
%"class.pxrInternal_v0_24__pxrReserved__::HdMaterialNetworkSchema" = type { %"class.pxrInternal_v0_24__pxrReserved__::HdSchema" }
%"class.pxrInternal_v0_24__pxrReserved__::HdSchema" = type { %"class.std::shared_ptr" }
%"class.pxrInternal_v0_24__pxrReserved__::HdContainerDataSourceEditor" = type { %"class.std::shared_ptr.1", %"class.std::shared_ptr", %"class.pxrInternal_v0_24__pxrReserved__::TfSmallVector" }
%"class.std::shared_ptr.1" = type { %"class.std::__shared_ptr.2" }
%"class.std::__shared_ptr.2" = type { ptr, %"class.std::__shared_count" }
%"class.pxrInternal_v0_24__pxrReserved__::TfSmallVector" = type { %"union.pxrInternal_v0_24__pxrReserved__::TfSmallVectorBase::_DataUnion", i32, i32 }
%"union.pxrInternal_v0_24__pxrReserved__::TfSmallVectorBase::_DataUnion" = type { ptr, [216 x i8] }
%"class.std::unordered_map" = type { %"class.std::_Hashtable" }
%"class.std::_Hashtable" = type { ptr, i64, %"struct.std::__detail::_Hash_node_base", i64, %"struct.std::__detail::_Prime_rehash_policy", ptr }
%"struct.std::__detail::_Hash_node_base" = type { ptr }
%"struct.std::__detail::_Prime_rehash_policy" = type { float, i64 }
%"class.std::unordered_set" = type { %"class.std::_Hashtable.9" }
%"class.std::_Hashtable.9" = type { ptr, i64, %"struct.std::__detail::_Hash_node_base", i64, %"struct.std::__detail::_Prime_rehash_policy", ptr }
%"class.pxrInternal_v0_24__pxrReserved__::HdSchemaBasedContainerSchema" = type { %"class.pxrInternal_v0_24__pxrReserved__::HdContainerSchema" }
%"class.pxrInternal_v0_24__pxrReserved__::HdContainerSchema" = type { %"class.pxrInternal_v0_24__pxrReserved__::HdSchema" }
%"class.pxrInternal_v0_24__pxrReserved__::TfToken" = type { %"class.pxrInternal_v0_24__pxrReserved__::TfPointerAndBits" }
%"class.pxrInternal_v0_24__pxrReserved__::TfPointerAndBits" = type { ptr }
%"class.pxrInternal_v0_24__pxrReserved__::HdMaterialNodeSchema" = type { %"class.pxrInternal_v0_24__pxrReserved__::HdSchema" }
%"class.pxrInternal_v0_24__pxrReserved__::HdSchemaBasedContainerSchema.25" = type { %"class.pxrInternal_v0_24__pxrReserved__::HdContainerSchema" }
%"class.pxrInternal_v0_24__pxrReserved__::HdSchemaBasedContainerSchema.26" = type { %"class.pxrInternal_v0_24__pxrReserved__::HdContainerSchema" }

; Function Attrs: mustprogress nounwind uwtable
define linkonce_odr noundef i64 @_ZNKSt10_HashtableIN32pxrInternal_v0_24__pxrReserved__19HdDataSourceLocatorESt4pairIKS1_St10shared_ptrINS0_16HdDataSourceBaseEEESaIS7_ENSt8__detail10_Select1stESt8equal_toIS1_ENS0_6TfHashENS9_18_Mod_range_hashingENS9_20_Default_ranged_hashENS9_20_Prime_rehash_policyENS9_17_Hashtable_traitsILb1ELb0ELb1EEEE4sizeEv(ptr noundef nonnull align 8 dereferenceable(56) %0) #1 comdat align 2 {
  %2 = alloca ptr, align 8
  store ptr %0, ptr %2, align 8
  %3 = load ptr, ptr %2, align 8
  %4 = getelementptr inbounds nuw %"class.std::_Hashtable", ptr %3, i32 0, i32 3
  %5 = load i64, ptr %4, align 8
  ret i64 %5
}

; Function Attrs: mustprogress nounwind uwtable
define linkonce_odr noundef zeroext i1 @_ZNKSt10_HashtableIN32pxrInternal_v0_24__pxrReserved__19HdDataSourceLocatorESt4pairIKS1_St10shared_ptrINS0_16HdDataSourceBaseEEESaIS7_ENSt8__detail10_Select1stESt8equal_toIS1_ENS0_6TfHashENS9_18_Mod_range_hashingENS9_20_Default_ranged_hashENS9_20_Prime_rehash_policyENS9_17_Hashtable_traitsILb1ELb0ELb1EEEE5emptyEv(ptr noundef nonnull align 8 dereferenceable(56) %0) #1 comdat align 2 {
  %2 = alloca ptr, align 8
  store ptr %0, ptr %2, align 8
  %3 = load ptr, ptr %2, align 8
  %4 = call noundef i64 @_ZNKSt10_HashtableIN32pxrInternal_v0_24__pxrReserved__19HdDataSourceLocatorESt4pairIKS1_St10shared_ptrINS0_16HdDataSourceBaseEEESaIS7_ENSt8__detail10_Select1stESt8equal_toIS1_ENS0_6TfHashENS9_18_Mod_range_hashingENS9_20_Default_ranged_hashENS9_20_Prime_rehash_policyENS9_17_Hashtable_traitsILb1ELb0ELb1EEEE4sizeEv(ptr noundef nonnull align 8 dereferenceable(56) %3) #4
  %5 = icmp eq i64 %4, 0
  ret i1 %5
}

; Function Attrs: mustprogress nounwind uwtable
define linkonce_odr noundef zeroext i1 @_ZNKSt13unordered_mapIN32pxrInternal_v0_24__pxrReserved__19HdDataSourceLocatorESt10shared_ptrINS0_16HdDataSourceBaseEENS0_6TfHashESt8equal_toIS1_ESaISt4pairIKS1_S4_EEE5emptyEv(ptr noundef nonnull align 8 dereferenceable(56) %0) #1 comdat align 2 {
  %2 = alloca ptr, align 8
  store ptr %0, ptr %2, align 8
  %3 = load ptr, ptr %2, align 8
  %4 = getelementptr inbounds nuw %"class.std::unordered_map", ptr %3, i32 0, i32 0
  %5 = call noundef zeroext i1 @_ZNKSt10_HashtableIN32pxrInternal_v0_24__pxrReserved__19HdDataSourceLocatorESt4pairIKS1_St10shared_ptrINS0_16HdDataSourceBaseEEESaIS7_ENSt8__detail10_Select1stESt8equal_toIS1_ENS0_6TfHashENS9_18_Mod_range_hashingENS9_20_Default_ranged_hashENS9_20_Prime_rehash_policyENS9_17_Hashtable_traitsILb1ELb0ELb1EEEE5emptyEv(ptr noundef nonnull align 8 dereferenceable(56) %4) #4
  ret i1 %5
}

; Function Attrs: mustprogress uwtable
define void @_ZN32pxrInternal_v0_24__pxrReserved__36HdDataSourceMaterialNetworkInterface6FinishEv(ptr dead_on_unwind noalias writable sret(%"class.std::shared_ptr") align 8 %0, ptr noundef nonnull align 8 dereferenceable(560) %1) #0 align 2 {
  %3 = alloca ptr, align 8
  %4 = alloca ptr, align 8
  store ptr %0, ptr %3, align 8
  store ptr %1, ptr %4, align 8
  %5 = load ptr, ptr %4, align 8
  %6 = getelementptr inbounds nuw %"class.pxrInternal_v0_24__pxrReserved__::HdDataSourceMaterialNetworkInterface", ptr %5, i32 0, i32 5
  %7 = call noundef zeroext i1 @_ZNKSt13unordered_mapIN32pxrInternal_v0_24__pxrReserved__19HdDataSourceLocatorESt10shared_ptrINS0_16HdDataSourceBaseEENS0_6TfHashESt8equal_toIS1_ESaISt4pairIKS1_S4_EEE5emptyEv(ptr noundef nonnull align 8 dereferenceable(56) %6) #4
  br i1 %7, label %8, label %10

8:                                                ; preds = %2
  %9 = getelementptr inbounds nuw %"class.pxrInternal_v0_24__pxrReserved__::HdDataSourceMaterialNetworkInterface", ptr %5, i32 0, i32 2
  call void @_ZNK32pxrInternal_v0_24__pxrReserved__8HdSchema12GetContainerEv(ptr dead_on_unwind writable sret(%"class.std::shared_ptr") align 8 %0, ptr noundef nonnull align 8 dereferenceable(16) %9)
  br label %12

10:                                               ; preds = %2
  %11 = getelementptr inbounds nuw %"class.pxrInternal_v0_24__pxrReserved__::HdDataSourceMaterialNetworkInterface", ptr %5, i32 0, i32 3
  call void @_ZN32pxrInternal_v0_24__pxrReserved__27HdContainerDataSourceEditor6FinishEv(ptr dead_on_unwind writable sret(%"class.std::shared_ptr") align 8 %0, ptr noundef nonnull align 8 dereferenceable(264) %11)
  br label %12

12:                                               ; preds = %10, %8
  ret void
}