; Function Attrs: mustprogress uwtable
define void @_ZN32pxrInternal_v0_24__pxrReserved__36HdDataSourceMaterialNetworkInterface6FinishEv(ptr dead_on_unwind noalias writable sret(%"class.std::shared_ptr") align 8 %0, ptr noundef nonnull align 8 dereferenceable(560) %1) local_unnamed_addr #0 align 2 {
  %3 = getelementptr inbounds nuw i8, ptr %1, i64 336
  %4 = load i64, ptr %3, align 8
  %5 = icmp eq i64 %4, 0
  br i1 %5, label %6, label %8

6:                                                ; preds = %2
  %7 = getelementptr inbounds nuw i8, ptr %1, i64 16
  tail call void @_ZNK32pxrInternal_v0_24__pxrReserved__8HdSchema12GetContainerEv(ptr dead_on_unwind writable sret(%"class.std::shared_ptr") align 8 %0, ptr noundef nonnull align 8 dereferenceable(16) %7)
  br label %10

8:                                                ; preds = %2
  %9 = getelementptr inbounds nuw i8, ptr %1, i64 32
  tail call void @_ZN32pxrInternal_v0_24__pxrReserved__27HdContainerDataSourceEditor6FinishEv(ptr dead_on_unwind writable sret(%"class.std::shared_ptr") align 8 %0, ptr noundef nonnull align 8 dereferenceable(264) %9)
  br label %10

10:                                               ; preds = %8, %6
  ret void
}